; Function Attrs: mustprogress uwtable
define hidden void @_ZN17opencv_tensorflow9AttrValue5ClearEv(ptr noundef nonnull align 8 dereferenceable(32) %0) unnamed_addr #3 align 2 {
  tail call void @_ZN17opencv_tensorflow9AttrValue11clear_valueEv(ptr noundef nonnull align 8 dereferenceable(32) %0)
  %2 = getelementptr inbounds nuw i8, ptr %0, i64 8
  %3 = load i64, ptr %2, align 8, !tbaa !16
  %4 = and i64 %3, 1
  %.not = icmp eq i64 %4, 0
  br i1 %.not, label %_ZN6google8protobuf8internal16InternalMetadata5ClearINS0_15UnknownFieldSetEEEvv.exit, label %5

5:                                                ; preds = %1
  tail call void @_ZN6google8protobuf8internal16InternalMetadata7DoClearINS0_15UnknownFieldSetEEEvv(ptr noundef nonnull align 8 dereferenceable(8) %2)
  br label %_ZN6google8protobuf8internal16InternalMetadata5ClearINS0_15UnknownFieldSetEEEvv.exit

_ZN6google8protobuf8internal16InternalMetadata5ClearINS0_15UnknownFieldSetEEEvv.exit: ; preds = %1, %5
  ret void
}